ccopy_reg
_reconstructor
p0
(cPerson
Person
p1
c__builtin__
object
p2
Ntp3
Rp4
(dp5
S'_Person__name'
p6
S'Bob'
p7
sS'_Person__age'
p8
I45
sb.ccopy_reg
_reconstructor
p0
(cCircle
Circle
p1
c__builtin__
object
p2
Ntp3
Rp4
(dp5
S'_Circle__radius'
p6
I10
sb.