(lp0
S'red'
p1
aF6.3
a(I10
I20
I30
tp2
accopy_reg
_reconstructor
p3
(cPerson
Person
p4
c__builtin__
object
p5
Ntp6
Rp7
(dp8
S'name'
p9
S'Bob'
p10
sS'_Person__age'
p11
I45
sba(iCircle
Circle
p12
(dp13
S'_Circle__radius'
p14
I10
sba.